target datalayout = "e-m:e-p270:32:32-p271:32:32-p272:64:64-i64:64-i128:128-f80:128-n8:16:32:64-S128"
target triple = "x86_64-pc-linux-gnu"

%"class.icu_77::RuleBasedBreakIterator::DictionaryCache" = type <{ ptr, %"class.icu_77::UVector32", i32, i32, i32, i32, i32, [4 x i8] }>
%"class.icu_77::UVector32" = type { %"class.icu_77::UObject", i32, i32, i32, ptr }
%"class.icu_77::UObject" = type { ptr }

; Function Attrs: inlinehint mustprogress nounwind uwtable
define linkonce_odr noundef i32 @_ZNK6icu_779UVector3210elementAtiEi(ptr noundef nonnull align 8 dereferenceable(32) %0, i32 noundef %1) #5 comdat align 2 {
  %3 = alloca ptr, align 8
  %4 = alloca i32, align 4
  store ptr %0, ptr %3, align 8, !tbaa !26
  store i32 %1, ptr %4, align 4, !tbaa !22
  %5 = load ptr, ptr %3, align 8
  %6 = load i32, ptr %4, align 4, !tbaa !22
  %7 = icmp sge i32 %6, 0
  br i1 %7, label %8, label %25

8:                                                ; preds = %2
  %9 = getelementptr inbounds nuw %"class.icu_77::UVector32", ptr %5, i32 0, i32 1
  %10 = load i32, ptr %9, align 8, !tbaa !28
  %11 = icmp sgt i32 %10, 0
  br i1 %11, label %12, label %25

12:                                               ; preds = %8
  %13 = getelementptr inbounds nuw %"class.icu_77::UVector32", ptr %5, i32 0, i32 1
  %14 = load i32, ptr %13, align 8, !tbaa !28
  %15 = load i32, ptr %4, align 4, !tbaa !22
  %16 = sub nsw i32 %14, %15
  %17 = icmp sgt i32 %16, 0
  br i1 %17, label %18, label %25

18:                                               ; preds = %12
  %19 = getelementptr inbounds nuw %"class.icu_77::UVector32", ptr %5, i32 0, i32 4
  %20 = load ptr, ptr %19, align 8, !tbaa !29
  %21 = load i32, ptr %4, align 4, !tbaa !22
  %22 = sext i32 %21 to i64
  %23 = getelementptr inbounds i32, ptr %20, i64 %22
  %24 = load i32, ptr %23, align 4, !tbaa !22
  br label %26

25:                                               ; preds = %12, %8, %2
  br label %26

26:                                               ; preds = %25, %18
  %27 = phi i32 [ %24, %18 ], [ 0, %25 ]
  ret i32 %27
}

; Function Attrs: inlinehint mustprogress nounwind uwtable
define linkonce_odr noundef i32 @_ZNK6icu_779UVector324sizeEv(ptr noundef nonnull align 8 dereferenceable(32) %0) #5 comdat align 2 {
  %2 = alloca ptr, align 8
  store ptr %0, ptr %2, align 8, !tbaa !26
  %3 = load ptr, ptr %2, align 8
  %4 = getelementptr inbounds nuw %"class.icu_77::UVector32", ptr %3, i32 0, i32 1
  %5 = load i32, ptr %4, align 8, !tbaa !28
  ret i32 %5
}

; Function Attrs: mustprogress uwtable
define noundef signext i8 @_ZN6icu_7722RuleBasedBreakIterator15DictionaryCache9followingEiPiS2_(ptr noundef nonnull align 8 dereferenceable(60) %0, i32 noundef %1, ptr noundef %2, ptr noundef %3) #0 align 2 {
  %5 = alloca i8, align 1
  %6 = alloca ptr, align 8
  %7 = alloca i32, align 4
  %8 = alloca ptr, align 8
  %9 = alloca ptr, align 8
  %10 = alloca i32, align 4
  %11 = alloca i32, align 4
  store ptr %0, ptr %6, align 8, !tbaa !3
  store i32 %1, ptr %7, align 4, !tbaa !22
  store ptr %2, ptr %8, align 8, !tbaa !23
  store ptr %3, ptr %9, align 8, !tbaa !23
  %12 = load ptr, ptr %6, align 8
  %13 = load i32, ptr %7, align 4, !tbaa !22
  %14 = getelementptr inbounds nuw %"class.icu_77::RuleBasedBreakIterator::DictionaryCache", ptr %12, i32 0, i32 4
  %15 = load i32, ptr %14, align 8, !tbaa !19
  %16 = icmp sge i32 %13, %15
  br i1 %16, label %22, label %17

17:                                               ; preds = %4
  %18 = load i32, ptr %7, align 4, !tbaa !22
  %19 = getelementptr inbounds nuw %"class.icu_77::RuleBasedBreakIterator::DictionaryCache", ptr %12, i32 0, i32 3
  %20 = load i32, ptr %19, align 4, !tbaa !18
  %21 = icmp slt i32 %18, %20
  br i1 %21, label %22, label %24

22:                                               ; preds = %17, %4
  %23 = getelementptr inbounds nuw %"class.icu_77::RuleBasedBreakIterator::DictionaryCache", ptr %12, i32 0, i32 2
  store i32 -1, ptr %23, align 8, !tbaa !17
  store i8 0, ptr %5, align 1
  br label %91

24:                                               ; preds = %17
  call void @llvm.lifetime.start.p0(i64 4, ptr %10) #8
  store i32 0, ptr %10, align 4, !tbaa !22
  %25 = getelementptr inbounds nuw %"class.icu_77::RuleBasedBreakIterator::DictionaryCache", ptr %12, i32 0, i32 2
  %26 = load i32, ptr %25, align 8, !tbaa !17
  %27 = icmp sge i32 %26, 0
  br i1 %27, label %28, label %62

28:                                               ; preds = %24
  %29 = getelementptr inbounds nuw %"class.icu_77::RuleBasedBreakIterator::DictionaryCache", ptr %12, i32 0, i32 2
  %30 = load i32, ptr %29, align 8, !tbaa !17
  %31 = getelementptr inbounds nuw %"class.icu_77::RuleBasedBreakIterator::DictionaryCache", ptr %12, i32 0, i32 1
  %32 = call noundef i32 @_ZNK6icu_779UVector324sizeEv(ptr noundef nonnull align 8 dereferenceable(32) %31)
  %33 = icmp slt i32 %30, %32
  br i1 %33, label %34, label %62

34:                                               ; preds = %28
  %35 = getelementptr inbounds nuw %"class.icu_77::RuleBasedBreakIterator::DictionaryCache", ptr %12, i32 0, i32 1
  %36 = getelementptr inbounds nuw %"class.icu_77::RuleBasedBreakIterator::DictionaryCache", ptr %12, i32 0, i32 2
  %37 = load i32, ptr %36, align 8, !tbaa !17
  %38 = call noundef i32 @_ZNK6icu_779UVector3210elementAtiEi(ptr noundef nonnull align 8 dereferenceable(32) %35, i32 noundef %37)
  %39 = load i32, ptr %7, align 4, !tbaa !22
  %40 = icmp eq i32 %38, %39
  br i1 %40, label %41, label %62

41:                                               ; preds = %34
  %42 = getelementptr inbounds nuw %"class.icu_77::RuleBasedBreakIterator::DictionaryCache", ptr %12, i32 0, i32 2
  %43 = load i32, ptr %42, align 8, !tbaa !17
  %44 = add nsw i32 %43, 1
  store i32 %44, ptr %42, align 8, !tbaa !17
  %45 = getelementptr inbounds nuw %"class.icu_77::RuleBasedBreakIterator::DictionaryCache", ptr %12, i32 0, i32 2
  %46 = load i32, ptr %45, align 8, !tbaa !17
  %47 = getelementptr inbounds nuw %"class.icu_77::RuleBasedBreakIterator::DictionaryCache", ptr %12, i32 0, i32 1
  %48 = call noundef i32 @_ZNK6icu_779UVector324sizeEv(ptr noundef nonnull align 8 dereferenceable(32) %47)
  %49 = icmp sge i32 %46, %48
  br i1 %49, label %50, label %52

50:                                               ; preds = %41
  %51 = getelementptr inbounds nuw %"class.icu_77::RuleBasedBreakIterator::DictionaryCache", ptr %12, i32 0, i32 2
  store i32 -1, ptr %51, align 8, !tbaa !17
  store i8 0, ptr %5, align 1
  store i32 1, ptr %11, align 4
  br label %90

52:                                               ; preds = %41
  %53 = getelementptr inbounds nuw %"class.icu_77::RuleBasedBreakIterator::DictionaryCache", ptr %12, i32 0, i32 1
  %54 = getelementptr inbounds nuw %"class.icu_77::RuleBasedBreakIterator::DictionaryCache", ptr %12, i32 0, i32 2
  %55 = load i32, ptr %54, align 8, !tbaa !17
  %56 = call noundef i32 @_ZNK6icu_779UVector3210elementAtiEi(ptr noundef nonnull align 8 dereferenceable(32) %53, i32 noundef %55)
  store i32 %56, ptr %10, align 4, !tbaa !22
  %57 = load i32, ptr %10, align 4, !tbaa !22
  %58 = load ptr, ptr %8, align 8, !tbaa !23
  store i32 %57, ptr %58, align 4, !tbaa !22
  %59 = getelementptr inbounds nuw %"class.icu_77::RuleBasedBreakIterator::DictionaryCache", ptr %12, i32 0, i32 6
  %60 = load i32, ptr %59, align 8, !tbaa !21
  %61 = load ptr, ptr %9, align 8, !tbaa !23
  store i32 %60, ptr %61, align 4, !tbaa !22
  store i8 1, ptr %5, align 1
  store i32 1, ptr %11, align 4
  br label %90

62:                                               ; preds = %34, %28, %24
  %63 = getelementptr inbounds nuw %"class.icu_77::RuleBasedBreakIterator::DictionaryCache", ptr %12, i32 0, i32 2
  store i32 0, ptr %63, align 8, !tbaa !17
  br label %64

64:                                               ; preds = %85, %62
  %65 = getelementptr inbounds nuw %"class.icu_77::RuleBasedBreakIterator::DictionaryCache", ptr %12, i32 0, i32 2
  %66 = load i32, ptr %65, align 8, !tbaa !17
  %67 = getelementptr inbounds nuw %"class.icu_77::RuleBasedBreakIterator::DictionaryCache", ptr %12, i32 0, i32 1
  %68 = call noundef i32 @_ZNK6icu_779UVector324sizeEv(ptr noundef nonnull align 8 dereferenceable(32) %67)
  %69 = icmp slt i32 %66, %68
  br i1 %69, label %70, label %89

70:                                               ; preds = %64
  %71 = getelementptr inbounds nuw %"class.icu_77::RuleBasedBreakIterator::DictionaryCache", ptr %12, i32 0, i32 1
  %72 = getelementptr inbounds nuw %"class.icu_77::RuleBasedBreakIterator::DictionaryCache", ptr %12, i32 0, i32 2
  %73 = load i32, ptr %72, align 8, !tbaa !17
  %74 = call noundef i32 @_ZNK6icu_779UVector3210elementAtiEi(ptr noundef nonnull align 8 dereferenceable(32) %71, i32 noundef %73)
  store i32 %74, ptr %10, align 4, !tbaa !22
  %75 = load i32, ptr %10, align 4, !tbaa !22
  %76 = load i32, ptr %7, align 4, !tbaa !22
  %77 = icmp sgt i32 %75, %76
  br i1 %77, label %78, label %84

78:                                               ; preds = %70
  %79 = load i32, ptr %10, align 4, !tbaa !22
  %80 = load ptr, ptr %8, align 8, !tbaa !23
  store i32 %79, ptr %80, align 4, !tbaa !22
  %81 = getelementptr inbounds nuw %"class.icu_77::RuleBasedBreakIterator::DictionaryCache", ptr %12, i32 0, i32 6
  %82 = load i32, ptr %81, align 8, !tbaa !21
  %83 = load ptr, ptr %9, align 8, !tbaa !23
  store i32 %82, ptr %83, align 4, !tbaa !22
  store i8 1, ptr %5, align 1
  store i32 1, ptr %11, align 4
  br label %90

84:                                               ; preds = %70
  br label %85

85:                                               ; preds = %84
  %86 = getelementptr inbounds nuw %"class.icu_77::RuleBasedBreakIterator::DictionaryCache", ptr %12, i32 0, i32 2
  %87 = load i32, ptr %86, align 8, !tbaa !17
  %88 = add nsw i32 %87, 1
  store i32 %88, ptr %86, align 8, !tbaa !17
  br label %64, !llvm.loop !24

89:                                               ; preds = %64
  call void @abort() #9
  unreachable

90:                                               ; preds = %78, %52, %50
  call void @llvm.lifetime.end.p0(i64 4, ptr %10) #8
  br label %91

91:                                               ; preds = %90, %22
  %92 = load i8, ptr %5, align 1
  ret i8 %92
}