; Function Attrs: mustprogress nofree nounwind uwtable
define noundef signext range(i8 0, 2) i8 @_ZN6icu_7722RuleBasedBreakIterator15DictionaryCache9followingEiPiS2_(ptr noundef nonnull align 8 captures(none) dereferenceable(60) %0, i32 noundef %1, ptr noundef writeonly captures(none) %2, ptr noundef writeonly captures(none) %3) local_unnamed_addr #4 align 2 {
  %5 = getelementptr inbounds nuw i8, ptr %0, i64 48
  %6 = load i32, ptr %5, align 8, !tbaa !14
  %.not = icmp sge i32 %1, %6
  %7 = getelementptr inbounds nuw i8, ptr %0, i64 44
  %8 = load i32, ptr %7, align 4
  %9 = icmp slt i32 %1, %8
  %or.cond = select i1 %.not, i1 true, i1 %9
  %10 = getelementptr inbounds nuw i8, ptr %0, i64 40
  br i1 %or.cond, label %11, label %12

11:                                               ; preds = %4
  store i32 -1, ptr %10, align 8, !tbaa !13
  br label %43

12:                                               ; preds = %4
  %13 = load i32, ptr %10, align 8, !tbaa !13
  %14 = icmp sgt i32 %13, -1
  %15 = getelementptr inbounds nuw i8, ptr %0, i64 16
  %16 = load i32, ptr %15, align 8, !tbaa !15
  %17 = icmp slt i32 %13, %16
  %or.cond27 = select i1 %14, i1 %17, i1 false
  br i1 %or.cond27, label %_ZNK6icu_779UVector3210elementAtiEi.exit, label %._crit_edge25

_ZNK6icu_779UVector3210elementAtiEi.exit:         ; preds = %12
  %18 = getelementptr inbounds nuw i8, ptr %0, i64 32
  %19 = load ptr, ptr %18, align 8, !tbaa !16
  %20 = zext nneg i32 %13 to i64
  %21 = getelementptr inbounds nuw i32, ptr %19, i64 %20
  %22 = load i32, ptr %21, align 4, !tbaa !17
  %23 = icmp eq i32 %22, %1
  br i1 %23, label %24, label %.thread

.thread:                                          ; preds = %_ZNK6icu_779UVector3210elementAtiEi.exit
  store i32 0, ptr %10, align 8, !tbaa !13
  br label %_ZNK6icu_779UVector3210elementAtiEi.exit21.lr.ph

24:                                               ; preds = %_ZNK6icu_779UVector3210elementAtiEi.exit
  %25 = add nuw nsw i32 %13, 1
  store i32 %25, ptr %10, align 8, !tbaa !13
  %.not15 = icmp samesign ult i32 %25, %16
  br i1 %.not15, label %_ZNK6icu_779UVector3210elementAtiEi.exit19, label %26

26:                                               ; preds = %24
  store i32 -1, ptr %10, align 8, !tbaa !13
  br label %43

_ZNK6icu_779UVector3210elementAtiEi.exit19:       ; preds = %24
  %27 = zext nneg i32 %25 to i64
  %28 = getelementptr inbounds nuw i32, ptr %19, i64 %27
  %29 = load i32, ptr %28, align 4, !tbaa !17
  store i32 %29, ptr %2, align 4, !tbaa !17
  %30 = getelementptr inbounds nuw i8, ptr %0, i64 56
  %31 = load i32, ptr %30, align 8, !tbaa !18
  store i32 %31, ptr %3, align 4, !tbaa !17
  br label %43

._crit_edge25:                                    ; preds = %12
  store i32 0, ptr %10, align 8, !tbaa !13
  %32 = icmp sgt i32 %16, 0
  br i1 %32, label %_ZNK6icu_779UVector3210elementAtiEi.exit21.lr.ph, label %._crit_edge

_ZNK6icu_779UVector3210elementAtiEi.exit21.lr.ph: ; preds = %.thread, %._crit_edge25
  %33 = getelementptr inbounds nuw i8, ptr %0, i64 32
  %34 = load ptr, ptr %33, align 8, !tbaa !16
  %wide.trip.count = zext nneg i32 %16 to i64
  br label %_ZNK6icu_779UVector3210elementAtiEi.exit21

35:                                               ; preds = %_ZNK6icu_779UVector3210elementAtiEi.exit21
  %indvars.iv.next = add nuw nsw i64 %indvars.iv, 1
  %36 = trunc nuw nsw i64 %indvars.iv.next to i32
  store i32 %36, ptr %10, align 8, !tbaa !13
  %exitcond.not = icmp eq i64 %indvars.iv.next, %wide.trip.count
  br i1 %exitcond.not, label %._crit_edge, label %_ZNK6icu_779UVector3210elementAtiEi.exit21, !llvm.loop !19

_ZNK6icu_779UVector3210elementAtiEi.exit21:       ; preds = %_ZNK6icu_779UVector3210elementAtiEi.exit21.lr.ph, %35
  %indvars.iv = phi i64 [ 0, %_ZNK6icu_779UVector3210elementAtiEi.exit21.lr.ph ], [ %indvars.iv.next, %35 ]
  %37 = getelementptr inbounds nuw i32, ptr %34, i64 %indvars.iv
  %38 = load i32, ptr %37, align 4, !tbaa !17
  %39 = icmp sgt i32 %38, %1
  br i1 %39, label %40, label %35

40:                                               ; preds = %_ZNK6icu_779UVector3210elementAtiEi.exit21
  store i32 %38, ptr %2, align 4, !tbaa !17
  %41 = getelementptr inbounds nuw i8, ptr %0, i64 56
  %42 = load i32, ptr %41, align 8, !tbaa !18
  store i32 %42, ptr %3, align 4, !tbaa !17
  br label %43

._crit_edge:                                      ; preds = %35, %._crit_edge25
  tail call void @abort() #15
  unreachable

43:                                               ; preds = %26, %_ZNK6icu_779UVector3210elementAtiEi.exit19, %40, %11
  %.0 = phi i8 [ 0, %11 ], [ 0, %26 ], [ 1, %_ZNK6icu_779UVector3210elementAtiEi.exit19 ], [ 1, %40 ]
  ret i8 %.0
}